; Function Attrs: nounwind uwtable
define dso_local noundef i64 @jsonpath_recv(ptr noundef readonly captures(none) %0) local_unnamed_addr #0 {
  %2 = alloca i32, align 4
  %3 = getelementptr inbounds nuw i8, ptr %0, i64 32
  %4 = load i64, ptr %3, align 8
  %5 = inttoptr i64 %4 to ptr
  %6 = tail call i32 @pq_getmsgint(ptr noundef %5, i32 noundef 1) #13
  call void @llvm.lifetime.start.p0(i64 4, ptr nonnull %2) #13
  %7 = icmp eq i32 %6, 1
  br i1 %7, label %8, label %17

8:                                                ; preds = %1
  %9 = getelementptr inbounds nuw i8, ptr %5, i64 8
  %10 = load i32, ptr %9, align 8
  %11 = getelementptr inbounds nuw i8, ptr %5, i64 16
  %12 = load i32, ptr %11, align 8
  %13 = sub i32 %10, %12
  %14 = call ptr @pq_getmsgtext(ptr noundef %5, i32 noundef %13, ptr noundef nonnull %2) #13
  %15 = load i32, ptr %2, align 4
  %16 = call fastcc i64 @jsonPathFromCstring(ptr noundef %14, i32 noundef %15, ptr noundef null)
  call void @llvm.lifetime.end.p0(i64 4, ptr nonnull %2) #13
  ret i64 %16

17:                                               ; preds = %1
  %18 = tail call zeroext i1 @errstart_cold(i32 noundef 21, ptr noundef null) #14
  tail call void @llvm.assume(i1 %18)
  %19 = tail call i32 (ptr, ...) @errmsg_internal(ptr noundef nonnull @.str, i32 noundef %6) #13
  tail call void @errfinish(ptr noundef nonnull @.str.1, i32 noundef 125, ptr noundef nonnull @__func__.jsonpath_recv) #13
  unreachable
}